; Function Attrs: mustprogress nofree norecurse nosync nounwind willreturn memory(read, inaccessiblemem: none) uwtable
define hidden noundef zeroext i1 @_ZN16proof_post_order7hasNextEv(ptr noundef nonnull readonly align 8 captures(none) dereferenceable(72) %0) local_unnamed_addr #5 align 2 {
  %2 = load ptr, ptr %0, align 8, !tbaa !3
  %3 = icmp eq ptr %2, null
  br i1 %3, label %_ZNK6vectorIP3appLb0EjE5emptyEv.exit, label %4

4:                                                ; preds = %1
  %5 = getelementptr inbounds i8, ptr %2, i64 -4
  %6 = load i32, ptr %5, align 4, !tbaa !14
  %7 = icmp ne i32 %6, 0
  br label %_ZNK6vectorIP3appLb0EjE5emptyEv.exit

_ZNK6vectorIP3appLb0EjE5emptyEv.exit:             ; preds = %1, %4
  %8 = phi i1 [ false, %1 ], [ %7, %4 ]
  ret i1 %8
}